target datalayout = "e-m:e-p270:32:32-p271:32:32-p272:64:64-i64:64-i128:128-f80:128-n8:16:32:64-S128"
target triple = "x86_64-pc-linux-gnu"

%struct.WOLFSSL_BUFFER_INFO = type { ptr, i32 }
%struct.WOLFSSL_X509_NAME = type { ptr, i32, i32, [256 x i8], ptr }
%struct.WOLFSSL_X509 = type { i32, i32, %struct.WOLFSSL_ASN1_TIME, %struct.WOLFSSL_ASN1_TIME, %struct.WOLFSSL_BUFFER_INFO, i32, ptr, %struct.WOLFSSL_BUFFER_INFO, i32, ptr, i32, ptr, ptr, i8, i8, [32 x i8], [256 x i8], %struct.WOLFSSL_X509_NAME, %struct.WOLFSSL_X509_NAME }
%struct.WOLFSSL_ASN1_TIME = type { [32 x i8], i32, i32 }

; Function Attrs: nounwind uwtable
define void @InitX509Name(ptr noundef %0, i32 noundef %1, ptr noundef %2) #0 {
  %4 = alloca ptr, align 8
  %5 = alloca i32, align 4
  %6 = alloca ptr, align 8
  store ptr %0, ptr %4, align 8, !tbaa !126
  store i32 %1, ptr %5, align 4, !tbaa !47
  store ptr %2, ptr %6, align 8, !tbaa !59
  %7 = load ptr, ptr %4, align 8, !tbaa !126
  %8 = icmp ne ptr %7, null
  br i1 %8, label %9, label %21

9:                                                ; preds = %3
  %10 = load ptr, ptr %4, align 8, !tbaa !126
  call void @llvm.memset.p0.i64(ptr align 8 %10, i8 0, i64 280, i1 false)
  %11 = load ptr, ptr %4, align 8, !tbaa !126
  %12 = getelementptr inbounds nuw %struct.WOLFSSL_X509_NAME, ptr %11, i32 0, i32 3
  %13 = getelementptr inbounds [256 x i8], ptr %12, i64 0, i64 0
  %14 = load ptr, ptr %4, align 8, !tbaa !126
  %15 = getelementptr inbounds nuw %struct.WOLFSSL_X509_NAME, ptr %14, i32 0, i32 0
  store ptr %13, ptr %15, align 8, !tbaa !128
  %16 = load ptr, ptr %6, align 8, !tbaa !59
  %17 = load ptr, ptr %4, align 8, !tbaa !126
  %18 = getelementptr inbounds nuw %struct.WOLFSSL_X509_NAME, ptr %17, i32 0, i32 4
  store ptr %16, ptr %18, align 8, !tbaa !130
  %19 = load ptr, ptr %4, align 8, !tbaa !126
  %20 = getelementptr inbounds nuw %struct.WOLFSSL_X509_NAME, ptr %19, i32 0, i32 1
  store i32 0, ptr %20, align 8, !tbaa !131
  br label %21

21:                                               ; preds = %9, %3
  ret void
}

; Function Attrs: nounwind uwtable
define void @InitX509(ptr noundef %0, i32 noundef %1, ptr noundef %2) #0 {
  %4 = alloca ptr, align 8
  %5 = alloca i32, align 4
  %6 = alloca ptr, align 8
  store ptr %0, ptr %4, align 8, !tbaa !132
  store i32 %1, ptr %5, align 4, !tbaa !47
  store ptr %2, ptr %6, align 8, !tbaa !59
  %7 = load ptr, ptr %4, align 8, !tbaa !132
  %8 = icmp eq ptr %7, null
  br i1 %8, label %9, label %12

9:                                                ; preds = %3
  br label %10

10:                                               ; preds = %9
  br label %11

11:                                               ; preds = %10
  br label %27

12:                                               ; preds = %3
  %13 = load ptr, ptr %4, align 8, !tbaa !132
  call void @llvm.memset.p0.i64(ptr align 8 %13, i8 0, i64 1032, i1 false)
  %14 = load ptr, ptr %6, align 8, !tbaa !59
  %15 = load ptr, ptr %4, align 8, !tbaa !132
  %16 = getelementptr inbounds nuw %struct.WOLFSSL_X509, ptr %15, i32 0, i32 12
  store ptr %14, ptr %16, align 8, !tbaa !134
  %17 = load ptr, ptr %4, align 8, !tbaa !132
  %18 = getelementptr inbounds nuw %struct.WOLFSSL_X509, ptr %17, i32 0, i32 17
  %19 = load ptr, ptr %6, align 8, !tbaa !59
  call void @InitX509Name(ptr noundef %18, i32 noundef 0, ptr noundef %19)
  %20 = load ptr, ptr %4, align 8, !tbaa !132
  %21 = getelementptr inbounds nuw %struct.WOLFSSL_X509, ptr %20, i32 0, i32 18
  %22 = load ptr, ptr %6, align 8, !tbaa !59
  call void @InitX509Name(ptr noundef %21, i32 noundef 0, ptr noundef %22)
  %23 = load i32, ptr %5, align 4, !tbaa !47
  %24 = trunc i32 %23 to i8
  %25 = load ptr, ptr %4, align 8, !tbaa !132
  %26 = getelementptr inbounds nuw %struct.WOLFSSL_X509, ptr %25, i32 0, i32 13
  store i8 %24, ptr %26, align 8, !tbaa !138
  br label %27

27:                                               ; preds = %12, %11
  ret void
}