; Function Attrs: mustprogress nofree norecurse nosync nounwind willreturn memory(argmem: write) uwtable
define void @InitX509(ptr noundef %0, i32 noundef %1, ptr noundef %2) local_unnamed_addr #3 {
  %4 = icmp eq ptr %0, null
  br i1 %4, label %17, label %5

5:                                                ; preds = %3
  tail call void @llvm.memset.p0.i64(ptr noundef nonnull align 8 dereferenceable(1032) %0, i8 0, i64 472, i1 false)
  %6 = getelementptr inbounds nuw i8, ptr %0, i64 168
  store ptr %2, ptr %6, align 8, !tbaa !107
  %7 = getelementptr inbounds nuw i8, ptr %0, i64 472
  %8 = getelementptr inbounds nuw i8, ptr %0, i64 480
  tail call void @llvm.memset.p0.i64(ptr noundef nonnull align 8 dereferenceable(280) %8, i8 0, i64 264, i1 false)
  %9 = getelementptr inbounds nuw i8, ptr %0, i64 488
  store ptr %9, ptr %7, align 8, !tbaa !103
  %10 = getelementptr inbounds nuw i8, ptr %0, i64 744
  store ptr %2, ptr %10, align 8, !tbaa !105
  %11 = getelementptr inbounds nuw i8, ptr %0, i64 752
  %12 = getelementptr inbounds nuw i8, ptr %0, i64 760
  tail call void @llvm.memset.p0.i64(ptr noundef nonnull align 8 dereferenceable(280) %12, i8 0, i64 264, i1 false)
  %13 = getelementptr inbounds nuw i8, ptr %0, i64 768
  store ptr %13, ptr %11, align 8, !tbaa !103
  %14 = getelementptr inbounds nuw i8, ptr %0, i64 1024
  store ptr %2, ptr %14, align 8, !tbaa !105
  %15 = trunc i32 %1 to i8
  %16 = getelementptr inbounds nuw i8, ptr %0, i64 176
  store i8 %15, ptr %16, align 8, !tbaa !111
  br label %17

17:                                               ; preds = %3, %5
  ret void
}